; Function Attrs: mustprogress uwtable
define void @_ZN3gmx24ParrinelloRahmanBarostat22restoreCheckpointStateESt8optionalINS_14CheckpointDataILNS_23CheckpointDataOperationE0EEEEPK9t_commrec(ptr noundef nonnull align 8 dereferenceable(344) %0, ptr %1, i8 %2, ptr noundef readonly captures(none) %3) unnamed_addr #0 align 2 {
  %5 = alloca %"class.std::optional.8", align 8
  store ptr %1, ptr %5, align 8
  %6 = getelementptr inbounds nuw i8, ptr %5, i64 8
  store i8 %2, ptr %6, align 8
  %7 = getelementptr inbounds nuw i8, ptr %3, i64 60
  %8 = load i32, ptr %7, align 4, !tbaa !160
  %9 = icmp eq i32 %8, 0
  br i1 %9, label %14, label %10

10:                                               ; preds = %4
  %11 = getelementptr inbounds nuw i8, ptr %3, i64 56
  %12 = load i32, ptr %11, align 8, !tbaa !178
  %13 = icmp sgt i32 %12, 1
  br i1 %13, label %17, label %14

14:                                               ; preds = %10, %4
  %15 = trunc nuw i8 %2 to i1
  br i1 %15, label %_ZNRSt8optionalIN3gmx14CheckpointDataILNS0_23CheckpointDataOperationE0EEEE5valueEv.exit, label %16

16:                                               ; preds = %14
  tail call void @_ZSt27__throw_bad_optional_accessv() #33
  unreachable

_ZNRSt8optionalIN3gmx14CheckpointDataILNS0_23CheckpointDataOperationE0EEEE5valueEv.exit: ; preds = %14
  call void @_ZN3gmx24ParrinelloRahmanBarostat16doCheckpointDataILNS_23CheckpointDataOperationE0EEEvPNS_14CheckpointDataIXT_EEE(ptr noundef nonnull align 8 dereferenceable(344) %0, ptr noundef nonnull %5)
  br label %17

17:                                               ; preds = %_ZNRSt8optionalIN3gmx14CheckpointDataILNS0_23CheckpointDataOperationE0EEEE5valueEv.exit, %10
  %18 = getelementptr i8, ptr %3, i64 112
  %.val = load ptr, ptr %18, align 8, !tbaa !183
  %.not = icmp eq ptr %.val, null
  br i1 %.not, label %23, label %19

19:                                               ; preds = %17
  %20 = getelementptr inbounds nuw i8, ptr %0, i64 180
  call void @_Z8dd_bcastPK12gmx_domdec_tiPv(ptr noundef nonnull %.val, i32 noundef 36, ptr noundef nonnull %20)
  %21 = load ptr, ptr %18, align 8, !tbaa !183
  %22 = getelementptr inbounds nuw i8, ptr %0, i64 144
  call void @_Z8dd_bcastPK12gmx_domdec_tiPv(ptr noundef %21, i32 noundef 36, ptr noundef nonnull %22)
  br label %23

23:                                               ; preds = %19, %17
  ret void
}